target datalayout = "e-m:e-p270:32:32-p271:32:32-p272:64:64-i64:64-i128:128-f80:128-n8:16:32:64-S128"
target triple = "x86_64-pc-linux-gnu"

%struct.mbedtls_aes_xts_context = type { %struct.mbedtls_aes_context, %struct.mbedtls_aes_context }
%struct.mbedtls_aes_context = type { i32, i64, [68 x i32] }

; Function Attrs: nounwind uwtable
define internal i32 @mbedtls_aes_xts_decode_keys(ptr noundef %0, i32 noundef %1, ptr noundef %2, ptr noundef %3, ptr noundef %4, ptr noundef %5) #0 {
  %7 = alloca i32, align 4
  %8 = alloca ptr, align 8
  %9 = alloca i32, align 4
  %10 = alloca ptr, align 8
  %11 = alloca ptr, align 8
  %12 = alloca ptr, align 8
  %13 = alloca ptr, align 8
  %14 = alloca i32, align 4
  %15 = alloca i32, align 4
  %16 = alloca i32, align 4
  store ptr %0, ptr %8, align 8, !tbaa !10
  store i32 %1, ptr %9, align 4, !tbaa !12
  store ptr %2, ptr %10, align 8, !tbaa !33
  store ptr %3, ptr %11, align 8, !tbaa !18
  store ptr %4, ptr %12, align 8, !tbaa !33
  store ptr %5, ptr %13, align 8, !tbaa !18
  call void @llvm.lifetime.start.p0(i64 4, ptr %14) #10
  %17 = load i32, ptr %9, align 4, !tbaa !12
  %18 = udiv i32 %17, 2
  store i32 %18, ptr %14, align 4, !tbaa !12
  call void @llvm.lifetime.start.p0(i64 4, ptr %15) #10
  %19 = load i32, ptr %14, align 4, !tbaa !12
  %20 = udiv i32 %19, 8
  store i32 %20, ptr %15, align 4, !tbaa !12
  %21 = load i32, ptr %9, align 4, !tbaa !12
  switch i32 %21, label %22 [
    i32 256, label %23
    i32 512, label %23
  ]

22:                                               ; preds = %6
  store i32 -32, ptr %7, align 4
  store i32 1, ptr %16, align 4
  br label %36

23:                                               ; preds = %6, %6
  %24 = load i32, ptr %14, align 4, !tbaa !12
  %25 = load ptr, ptr %11, align 8, !tbaa !18
  store i32 %24, ptr %25, align 4, !tbaa !12
  %26 = load i32, ptr %14, align 4, !tbaa !12
  %27 = load ptr, ptr %13, align 8, !tbaa !18
  store i32 %26, ptr %27, align 4, !tbaa !12
  %28 = load ptr, ptr %8, align 8, !tbaa !10
  %29 = getelementptr inbounds i8, ptr %28, i64 0
  %30 = load ptr, ptr %10, align 8, !tbaa !33
  store ptr %29, ptr %30, align 8, !tbaa !10
  %31 = load ptr, ptr %8, align 8, !tbaa !10
  %32 = load i32, ptr %15, align 4, !tbaa !12
  %33 = zext i32 %32 to i64
  %34 = getelementptr inbounds nuw i8, ptr %31, i64 %33
  %35 = load ptr, ptr %12, align 8, !tbaa !33
  store ptr %34, ptr %35, align 8, !tbaa !10
  store i32 0, ptr %7, align 4
  store i32 1, ptr %16, align 4
  br label %36

36:                                               ; preds = %23, %22
  call void @llvm.lifetime.end.p0(i64 4, ptr %15) #10
  call void @llvm.lifetime.end.p0(i64 4, ptr %14) #10
  %37 = load i32, ptr %7, align 4
  ret i32 %37
}

; Function Attrs: nounwind uwtable
define hidden i32 @mbedtls_aes_xts_setkey_dec(ptr noundef %0, ptr noundef %1, i32 noundef %2) #0 {
  %4 = alloca i32, align 4
  %5 = alloca ptr, align 8
  %6 = alloca ptr, align 8
  %7 = alloca i32, align 4
  %8 = alloca i32, align 4
  %9 = alloca ptr, align 8
  %10 = alloca ptr, align 8
  %11 = alloca i32, align 4
  %12 = alloca i32, align 4
  %13 = alloca i32, align 4
  store ptr %0, ptr %5, align 8, !tbaa !8
  store ptr %1, ptr %6, align 8, !tbaa !10
  store i32 %2, ptr %7, align 4, !tbaa !12
  call void @llvm.lifetime.start.p0(i64 4, ptr %8) #10
  store i32 -110, ptr %8, align 4, !tbaa !12
  call void @llvm.lifetime.start.p0(i64 8, ptr %9) #10
  call void @llvm.lifetime.start.p0(i64 8, ptr %10) #10
  call void @llvm.lifetime.start.p0(i64 4, ptr %11) #10
  call void @llvm.lifetime.start.p0(i64 4, ptr %12) #10
  %14 = load ptr, ptr %6, align 8, !tbaa !10
  %15 = load i32, ptr %7, align 4, !tbaa !12
  %16 = call i32 @mbedtls_aes_xts_decode_keys(ptr noundef %14, i32 noundef %15, ptr noundef %9, ptr noundef %11, ptr noundef %10, ptr noundef %12)
  store i32 %16, ptr %8, align 4, !tbaa !12
  %17 = load i32, ptr %8, align 4, !tbaa !12
  %18 = icmp ne i32 %17, 0
  br i1 %18, label %19, label %21

19:                                               ; preds = %3
  %20 = load i32, ptr %8, align 4, !tbaa !12
  store i32 %20, ptr %4, align 4
  store i32 1, ptr %13, align 4
  br label %37

21:                                               ; preds = %3
  %22 = load ptr, ptr %5, align 8, !tbaa !8
  %23 = getelementptr inbounds nuw %struct.mbedtls_aes_xts_context, ptr %22, i32 0, i32 1
  %24 = load ptr, ptr %10, align 8, !tbaa !10
  %25 = load i32, ptr %12, align 4, !tbaa !12
  %26 = call i32 @mbedtls_aes_setkey_enc(ptr noundef %23, ptr noundef %24, i32 noundef %25)
  store i32 %26, ptr %8, align 4, !tbaa !12
  %27 = load i32, ptr %8, align 4, !tbaa !12
  %28 = icmp ne i32 %27, 0
  br i1 %28, label %29, label %31

29:                                               ; preds = %21
  %30 = load i32, ptr %8, align 4, !tbaa !12
  store i32 %30, ptr %4, align 4
  store i32 1, ptr %13, align 4
  br label %37

31:                                               ; preds = %21
  %32 = load ptr, ptr %5, align 8, !tbaa !8
  %33 = getelementptr inbounds nuw %struct.mbedtls_aes_xts_context, ptr %32, i32 0, i32 0
  %34 = load ptr, ptr %9, align 8, !tbaa !10
  %35 = load i32, ptr %11, align 4, !tbaa !12
  %36 = call i32 @mbedtls_aes_setkey_dec(ptr noundef %33, ptr noundef %34, i32 noundef %35)
  store i32 %36, ptr %4, align 4
  store i32 1, ptr %13, align 4
  br label %37

37:                                               ; preds = %31, %29, %19
  call void @llvm.lifetime.end.p0(i64 4, ptr %12) #10
  call void @llvm.lifetime.end.p0(i64 4, ptr %11) #10
  call void @llvm.lifetime.end.p0(i64 8, ptr %10) #10
  call void @llvm.lifetime.end.p0(i64 8, ptr %9) #10
  call void @llvm.lifetime.end.p0(i64 4, ptr %8) #10
  %38 = load i32, ptr %4, align 4
  ret i32 %38
}